; Function Attrs: mustprogress nounwind uwtable
define dso_local void @_ZN4llvm26remove_fatal_error_handlerEv() local_unnamed_addr #0 {
  %1 = tail call noundef i32 @pthread_mutex_lock(ptr noundef nonnull align 8 dereferenceable(40) @_ZL17ErrorHandlerMutex) #12
  %.not.i.i = icmp eq i32 %1, 0
  br i1 %.not.i.i, label %_ZNSt10lock_guardISt5mutexEC2ERS0_.exit, label %2

2:                                                ; preds = %0
  tail call void @_ZSt20__throw_system_errori(i32 noundef %1) #13
  unreachable

_ZNSt10lock_guardISt5mutexEC2ERS0_.exit:          ; preds = %0
  store ptr null, ptr @_ZL12ErrorHandler, align 8
  store ptr null, ptr @_ZL20ErrorHandlerUserData, align 8
  %3 = tail call noundef i32 @pthread_mutex_unlock(ptr noundef nonnull align 8 dereferenceable(40) @_ZL17ErrorHandlerMutex) #12
  ret void
}